target datalayout = "e-m:e-p270:32:32-p271:32:32-p272:64:64-i64:64-i128:128-f80:128-n8:16:32:64-S128"
target triple = "x86_64-pc-linux-gnu"

%"class.std::ios_base::Init" = type { i8 }
%"class.cvc5::internal::theory::SkolemLemma" = type { %"class.cvc5::internal::TrustNode", %"class.cvc5::internal::NodeTemplate" }
%"class.cvc5::internal::TrustNode" = type { i32, %"class.cvc5::internal::NodeTemplate", ptr }
%"class.cvc5::internal::NodeTemplate" = type { ptr }

$_ZN4cvc58internal9TrustNodeC2ERKS1_ = comdat any

$_ZN4cvc58internal12NodeTemplateILb1EEC2ERKS2_ = comdat any

$_ZN4cvc58internal9TrustNodeD2Ev = comdat any

$_ZN4cvc58internal12NodeTemplateILb1EED2Ev = comdat any

$_ZN4cvc58internal4expr9NodeValue3decEv = comdat any

$__clang_call_terminate = comdat any

$_ZN4cvc58internal4expr9NodeValue3incEv = comdat any

@_ZStL8__ioinit = internal global %"class.std::ios_base::Init" zeroinitializer, align 1
@__dso_handle = external hidden global i8
@llvm.global_ctors = appending global [1 x { i32, ptr, ptr }] [{ i32, ptr, ptr } { i32 65535, ptr @_GLOBAL__sub_I_skolem_lemma.cpp, ptr null }]

@_ZN4cvc58internal6theory11SkolemLemmaC1ENS0_9TrustNodeENS0_12NodeTemplateILb1EEE = hidden unnamed_addr alias void (ptr, ptr, ptr), ptr @_ZN4cvc58internal6theory11SkolemLemmaC2ENS0_9TrustNodeENS0_12NodeTemplateILb1EEE

; Function Attrs: uwtable
define internal void @__cxx_global_var_init() #0 section ".text.startup" {
  call void @_ZNSt8ios_base4InitC1Ev(ptr noundef nonnull align 1 dereferenceable(1) @_ZStL8__ioinit)
  %1 = call i32 @__cxa_atexit(ptr @_ZNSt8ios_base4InitD1Ev, ptr @_ZStL8__ioinit, ptr @__dso_handle) #3
  ret void
}

declare void @_ZNSt8ios_base4InitC1Ev(ptr noundef nonnull align 1 dereferenceable(1)) unnamed_addr #1

; Function Attrs: nounwind
declare void @_ZNSt8ios_base4InitD1Ev(ptr noundef nonnull align 1 dereferenceable(1)) unnamed_addr #2

; Function Attrs: nounwind
declare i32 @__cxa_atexit(ptr, ptr, ptr) #3

; Function Attrs: mustprogress uwtable
define hidden void @_ZN4cvc58internal6theory11SkolemLemmaC2ENS0_9TrustNodeENS0_12NodeTemplateILb1EEE(ptr noundef nonnull align 8 dereferenceable(32) %0, ptr noundef %1, ptr noundef %2) unnamed_addr #4 align 2 personality ptr @__gxx_personality_v0 {
  %4 = alloca ptr, align 8
  %5 = alloca ptr, align 8
  %6 = alloca ptr, align 8
  %7 = alloca ptr, align 8
  %8 = alloca i32, align 4
  store ptr %0, ptr %4, align 8, !tbaa !3
  store ptr %1, ptr %5, align 8, !tbaa !8
  store ptr %2, ptr %6, align 8, !tbaa !10
  %9 = load ptr, ptr %4, align 8
  %10 = getelementptr inbounds nuw %"class.cvc5::internal::theory::SkolemLemma", ptr %9, i32 0, i32 0
  call void @_ZN4cvc58internal9TrustNodeC2ERKS1_(ptr noundef nonnull align 8 dereferenceable(24) %10, ptr noundef nonnull align 8 dereferenceable(24) %1)
  %11 = getelementptr inbounds nuw %"class.cvc5::internal::theory::SkolemLemma", ptr %9, i32 0, i32 1
  invoke void @_ZN4cvc58internal12NodeTemplateILb1EEC2ERKS2_(ptr noundef nonnull align 8 dereferenceable(8) %11, ptr noundef nonnull align 8 dereferenceable(8) %2)
          to label %12 unwind label %13

12:                                               ; preds = %3
  ret void

13:                                               ; preds = %3
  %14 = landingpad { ptr, i32 }
          cleanup
  %15 = extractvalue { ptr, i32 } %14, 0
  store ptr %15, ptr %7, align 8
  %16 = extractvalue { ptr, i32 } %14, 1
  store i32 %16, ptr %8, align 4
  call void @_ZN4cvc58internal9TrustNodeD2Ev(ptr noundef nonnull align 8 dereferenceable(24) %10) #3
  br label %17

17:                                               ; preds = %13
  %18 = load ptr, ptr %7, align 8
  %19 = load i32, ptr %8, align 4
  %20 = insertvalue { ptr, i32 } poison, ptr %18, 0
  %21 = insertvalue { ptr, i32 } %20, i32 %19, 1
  resume { ptr, i32 } %21
}

; Function Attrs: inlinehint mustprogress uwtable
define linkonce_odr hidden void @_ZN4cvc58internal9TrustNodeC2ERKS1_(ptr noundef nonnull align 8 dereferenceable(24) %0, ptr noundef nonnull align 8 dereferenceable(24) %1) unnamed_addr #5 comdat align 2 {
  %3 = alloca ptr, align 8
  %4 = alloca ptr, align 8
  store ptr %0, ptr %3, align 8, !tbaa !8
  store ptr %1, ptr %4, align 8, !tbaa !8
  %5 = load ptr, ptr %3, align 8
  %6 = getelementptr inbounds nuw %"class.cvc5::internal::TrustNode", ptr %5, i32 0, i32 0
  %7 = load ptr, ptr %4, align 8, !tbaa !8
  %8 = getelementptr inbounds nuw %"class.cvc5::internal::TrustNode", ptr %7, i32 0, i32 0
  %9 = load i32, ptr %8, align 8, !tbaa !12
  store i32 %9, ptr %6, align 8, !tbaa !12
  %10 = getelementptr inbounds nuw %"class.cvc5::internal::TrustNode", ptr %5, i32 0, i32 1
  %11 = load ptr, ptr %4, align 8, !tbaa !8
  %12 = getelementptr inbounds nuw %"class.cvc5::internal::TrustNode", ptr %11, i32 0, i32 1
  call void @_ZN4cvc58internal12NodeTemplateILb1EEC2ERKS2_(ptr noundef nonnull align 8 dereferenceable(8) %10, ptr noundef nonnull align 8 dereferenceable(8) %12)
  %13 = getelementptr inbounds nuw %"class.cvc5::internal::TrustNode", ptr %5, i32 0, i32 2
  %14 = load ptr, ptr %4, align 8, !tbaa !8
  %15 = getelementptr inbounds nuw %"class.cvc5::internal::TrustNode", ptr %14, i32 0, i32 2
  %16 = load ptr, ptr %15, align 8, !tbaa !18
  store ptr %16, ptr %13, align 8, !tbaa !18
  ret void
}

; Function Attrs: mustprogress uwtable
define linkonce_odr hidden void @_ZN4cvc58internal12NodeTemplateILb1EEC2ERKS2_(ptr noundef nonnull align 8 dereferenceable(8) %0, ptr noundef nonnull align 8 dereferenceable(8) %1) unnamed_addr #4 comdat align 2 {
  %3 = alloca ptr, align 8
  %4 = alloca ptr, align 8
  store ptr %0, ptr %3, align 8, !tbaa !10
  store ptr %1, ptr %4, align 8, !tbaa !10
  %5 = load ptr, ptr %3, align 8
  %6 = load ptr, ptr %4, align 8, !tbaa !10
  %7 = getelementptr inbounds nuw %"class.cvc5::internal::NodeTemplate", ptr %6, i32 0, i32 0
  %8 = load ptr, ptr %7, align 8, !tbaa !19
  %9 = getelementptr inbounds nuw %"class.cvc5::internal::NodeTemplate", ptr %5, i32 0, i32 0
  store ptr %8, ptr %9, align 8, !tbaa !19
  %10 = getelementptr inbounds nuw %"class.cvc5::internal::NodeTemplate", ptr %5, i32 0, i32 0
  %11 = load ptr, ptr %10, align 8, !tbaa !19
  call void @_ZN4cvc58internal4expr9NodeValue3incEv(ptr noundef nonnull align 8 dereferenceable(24) %11)
  ret void
}

declare i32 @__gxx_personality_v0(...)

; Function Attrs: mustprogress nounwind uwtable
define linkonce_odr hidden void @_ZN4cvc58internal9TrustNodeD2Ev(ptr noundef nonnull align 8 dereferenceable(24) %0) unnamed_addr #6 comdat align 2 {
  %2 = alloca ptr, align 8
  store ptr %0, ptr %2, align 8, !tbaa !8
  %3 = load ptr, ptr %2, align 8
  %4 = getelementptr inbounds nuw %"class.cvc5::internal::TrustNode", ptr %3, i32 0, i32 1
  call void @_ZN4cvc58internal12NodeTemplateILb1EED2Ev(ptr noundef nonnull align 8 dereferenceable(8) %4) #3
  ret void
}

; Function Attrs: mustprogress uwtable
define hidden void @_ZNK4cvc58internal6theory11SkolemLemma9getProvenEv(ptr dead_on_unwind noalias writable sret(%"class.cvc5::internal::NodeTemplate") align 8 %0, ptr noundef nonnull align 8 dereferenceable(32) %1) #4 align 2 {
  %3 = alloca ptr, align 8
  %4 = alloca ptr, align 8
  store ptr %0, ptr %3, align 8
  store ptr %1, ptr %4, align 8, !tbaa !3
  %5 = load ptr, ptr %4, align 8
  %6 = getelementptr inbounds nuw %"class.cvc5::internal::theory::SkolemLemma", ptr %5, i32 0, i32 0
  call void @_ZNK4cvc58internal9TrustNode9getProvenEv(ptr dead_on_unwind writable sret(%"class.cvc5::internal::NodeTemplate") align 8 %0, ptr noundef nonnull align 8 dereferenceable(24) %6)
  ret void
}

declare void @_ZNK4cvc58internal9TrustNode9getProvenEv(ptr dead_on_unwind writable sret(%"class.cvc5::internal::NodeTemplate") align 8, ptr noundef nonnull align 8 dereferenceable(24)) #1

; Function Attrs: mustprogress nounwind uwtable
define linkonce_odr hidden void @_ZN4cvc58internal12NodeTemplateILb1EED2Ev(ptr noundef nonnull align 8 dereferenceable(8) %0) unnamed_addr #6 comdat align 2 personality ptr @__gxx_personality_v0 {
  %2 = alloca ptr, align 8
  store ptr %0, ptr %2, align 8, !tbaa !10
  %3 = load ptr, ptr %2, align 8
  %4 = getelementptr inbounds nuw %"class.cvc5::internal::NodeTemplate", ptr %3, i32 0, i32 0
  %5 = load ptr, ptr %4, align 8, !tbaa !19
  invoke void @_ZN4cvc58internal4expr9NodeValue3decEv(ptr noundef nonnull align 8 dereferenceable(24) %5)
          to label %6 unwind label %7

6:                                                ; preds = %1
  ret void

7:                                                ; preds = %1
  %8 = landingpad { ptr, i32 }
          catch ptr null
  %9 = extractvalue { ptr, i32 } %8, 0
  call void @__clang_call_terminate(ptr %9) #9
  unreachable
}

; Function Attrs: mustprogress uwtable
define linkonce_odr hidden void @_ZN4cvc58internal4expr9NodeValue3decEv(ptr noundef nonnull align 8 dereferenceable(24) %0) #4 comdat align 2 {
  %2 = alloca ptr, align 8
  store ptr %0, ptr %2, align 8, !tbaa !20
  %3 = load ptr, ptr %2, align 8
  %4 = load i64, ptr %3, align 8
  %5 = lshr i64 %4, 40
  %6 = and i64 %5, 1048575
  %7 = trunc i64 %6 to i32
  %8 = icmp ult i32 %7, 1048575
  %9 = zext i1 %8 to i64
  %10 = call i64 @llvm.expect.i64(i64 %9, i64 1)
  %11 = icmp ne i64 %10, 0
  br i1 %11, label %12, label %34

12:                                               ; preds = %1
  %13 = load i64, ptr %3, align 8
  %14 = lshr i64 %13, 40
  %15 = and i64 %14, 1048575
  %16 = trunc i64 %15 to i32
  %17 = add i32 %16, -1
  %18 = zext i32 %17 to i64
  %19 = load i64, ptr %3, align 8
  %20 = and i64 %18, 1048575
  %21 = shl i64 %20, 40
  %22 = and i64 %19, -1152920405095219201
  %23 = or i64 %22, %21
  store i64 %23, ptr %3, align 8
  %24 = load i64, ptr %3, align 8
  %25 = lshr i64 %24, 40
  %26 = and i64 %25, 1048575
  %27 = trunc i64 %26 to i32
  %28 = icmp eq i32 %27, 0
  %29 = zext i1 %28 to i64
  %30 = call i64 @llvm.expect.i64(i64 %29, i64 0)
  %31 = icmp ne i64 %30, 0
  br i1 %31, label %32, label %33

32:                                               ; preds = %12
  call void @_ZN4cvc58internal4expr9NodeValue15markForDeletionEv(ptr noundef nonnull align 8 dereferenceable(24) %3)
  br label %33

33:                                               ; preds = %32, %12
  br label %34

34:                                               ; preds = %33, %1
  ret void
}

; Function Attrs: noinline noreturn nounwind uwtable
define linkonce_odr hidden void @__clang_call_terminate(ptr noundef %0) #7 comdat {
  %2 = call ptr @__cxa_begin_catch(ptr %0) #3
  call void @_ZSt9terminatev() #9
  unreachable
}

declare ptr @__cxa_begin_catch(ptr)

declare void @_ZSt9terminatev()

; Function Attrs: nocallback nofree nosync nounwind willreturn memory(none)
declare i64 @llvm.expect.i64(i64, i64) #8

declare void @_ZN4cvc58internal4expr9NodeValue15markForDeletionEv(ptr noundef nonnull align 8 dereferenceable(24)) #1

; Function Attrs: mustprogress uwtable
define linkonce_odr hidden void @_ZN4cvc58internal4expr9NodeValue3incEv(ptr noundef nonnull align 8 dereferenceable(24) %0) #4 comdat align 2 {
  %2 = alloca ptr, align 8
  store ptr %0, ptr %2, align 8, !tbaa !20
  %3 = load ptr, ptr %2, align 8
  %4 = load i64, ptr %3, align 8
  %5 = lshr i64 %4, 40
  %6 = and i64 %5, 1048575
  %7 = trunc i64 %6 to i32
  %8 = icmp ult i32 %7, 1048574
  %9 = zext i1 %8 to i64
  %10 = call i64 @llvm.expect.i64(i64 %9, i64 1)
  %11 = icmp ne i64 %10, 0
  br i1 %11, label %12, label %24

12:                                               ; preds = %1
  %13 = load i64, ptr %3, align 8
  %14 = lshr i64 %13, 40
  %15 = and i64 %14, 1048575
  %16 = trunc i64 %15 to i32
  %17 = add i32 %16, 1
  %18 = zext i32 %17 to i64
  %19 = load i64, ptr %3, align 8
  %20 = and i64 %18, 1048575
  %21 = shl i64 %20, 40
  %22 = and i64 %19, -1152920405095219201
  %23 = or i64 %22, %21
  store i64 %23, ptr %3, align 8
  br label %46

24:                                               ; preds = %1
  %25 = load i64, ptr %3, align 8
  %26 = lshr i64 %25, 40
  %27 = and i64 %26, 1048575
  %28 = trunc i64 %27 to i32
  %29 = icmp eq i32 %28, 1048574
  %30 = zext i1 %29 to i64
  %31 = call i64 @llvm.expect.i64(i64 %30, i64 0)
  %32 = icmp ne i64 %31, 0
  br i1 %32, label %33, label %45

33:                                               ; preds = %24
  %34 = load i64, ptr %3, align 8
  %35 = lshr i64 %34, 40
  %36 = and i64 %35, 1048575
  %37 = trunc i64 %36 to i32
  %38 = add i32 %37, 1
  %39 = zext i32 %38 to i64
  %40 = load i64, ptr %3, align 8
  %41 = and i64 %39, 1048575
  %42 = shl i64 %41, 40
  %43 = and i64 %40, -1152920405095219201
  %44 = or i64 %43, %42
  store i64 %44, ptr %3, align 8
  call void @_ZN4cvc58internal4expr9NodeValue20markRefCountMaxedOutEv(ptr noundef nonnull align 8 dereferenceable(24) %3)
  br label %45

45:                                               ; preds = %33, %24
  br label %46

46:                                               ; preds = %45, %12
  ret void
}

declare void @_ZN4cvc58internal4expr9NodeValue20markRefCountMaxedOutEv(ptr noundef nonnull align 8 dereferenceable(24)) #1

; Function Attrs: uwtable
define internal void @_GLOBAL__sub_I_skolem_lemma.cpp() #0 section ".text.startup" {
  call void @__cxx_global_var_init()
  ret void
}


!llvm.module.flags = !{!0, !1, !2}

!0 = !{i32 1, !"wchar_size", i32 4}
!1 = !{i32 8, !"PIC Level", i32 2}
!2 = !{i32 7, !"uwtable", i32 2}
!3 = !{!4, !4, i64 0}
!4 = !{!"p1 _ZTSN4cvc58internal6theory11SkolemLemmaE", !5, i64 0}
!5 = !{!"any pointer", !6, i64 0}
!6 = !{!"omnipotent char", !7, i64 0}
!7 = !{!"Simple C++ TBAA"}
!8 = !{!9, !9, i64 0}
!9 = !{!"p1 _ZTSN4cvc58internal9TrustNodeE", !5, i64 0}
!10 = !{!11, !11, i64 0}
!11 = !{!"p1 _ZTSN4cvc58internal12NodeTemplateILb1EEE", !5, i64 0}
!12 = !{!13, !14, i64 0}
!13 = !{!"_ZTSN4cvc58internal9TrustNodeE", !14, i64 0, !15, i64 8, !17, i64 16}
!14 = !{!"_ZTSN4cvc58internal13TrustNodeKindE", !6, i64 0}
!15 = !{!"_ZTSN4cvc58internal12NodeTemplateILb1EEE", !16, i64 0}
!16 = !{!"p1 _ZTSN4cvc58internal4expr9NodeValueE", !5, i64 0}
!17 = !{!"p1 _ZTSN4cvc58internal14ProofGeneratorE", !5, i64 0}
!18 = !{!13, !17, i64 16}
!19 = !{!15, !16, i64 0}
!20 = !{!16, !16, i64 0}
