; ModuleID = 'bench/cvc5/original/skolem_lemma.ll'
source_filename = "bench/cvc5/original/skolem_lemma.ll"
target datalayout = "e-m:e-p270:32:32-p271:32:32-p272:64:64-i64:64-i128:128-f80:128-n8:16:32:64-S128"
target triple = "x86_64-pc-linux-gnu"

%"class.std::ios_base::Init" = type { i8 }
%"class.cvc5::internal::NodeTemplate" = type { ptr }

$_ZN4cvc58internal9TrustNodeD2Ev = comdat any

$__clang_call_terminate = comdat any

@_ZStL8__ioinit = internal global %"class.std::ios_base::Init" zeroinitializer, align 1
@__dso_handle = external hidden global i8
@llvm.global_ctors = appending global [1 x { i32, ptr, ptr }] [{ i32, ptr, ptr } { i32 65535, ptr @_GLOBAL__sub_I_skolem_lemma.cpp, ptr null }]

@_ZN4cvc58internal6theory11SkolemLemmaC1ENS0_9TrustNodeENS0_12NodeTemplateILb1EEE = hidden unnamed_addr alias void (ptr, ptr, ptr), ptr @_ZN4cvc58internal6theory11SkolemLemmaC2ENS0_9TrustNodeENS0_12NodeTemplateILb1EEE

declare void @_ZNSt8ios_base4InitC1Ev(ptr noundef nonnull align 1 dereferenceable(1)) unnamed_addr #0

; Function Attrs: nounwind
declare void @_ZNSt8ios_base4InitD1Ev(ptr noundef nonnull align 1 dereferenceable(1)) unnamed_addr #1

; Function Attrs: nofree nounwind
declare i32 @__cxa_atexit(ptr, ptr, ptr) local_unnamed_addr #2

; Function Attrs: mustprogress uwtable
define hidden void @_ZN4cvc58internal6theory11SkolemLemmaC2ENS0_9TrustNodeENS0_12NodeTemplateILb1EEE(ptr noundef nonnull align 8 dereferenceable(32) initializes((0, 4), (8, 32)) %0, ptr noundef readonly captures(none) %1, ptr noundef readonly captures(none) %2) unnamed_addr #3 align 2 personality ptr @__gxx_personality_v0 {
  %4 = load i32, ptr %1, align 8, !tbaa !3
  store i32 %4, ptr %0, align 8, !tbaa !3
  %5 = getelementptr inbounds nuw i8, ptr %0, i64 8
  %6 = getelementptr inbounds nuw i8, ptr %1, i64 8
  %7 = load ptr, ptr %6, align 8, !tbaa !12
  store ptr %7, ptr %5, align 8, !tbaa !12
  %8 = load i64, ptr %7, align 8
  %9 = lshr i64 %8, 40
  %10 = trunc nuw nsw i64 %9 to i32
  %11 = and i32 %10, 1048575
  %12 = icmp samesign ult i32 %11, 1048574
  br i1 %12, label %13, label %18, !prof !13

13:                                               ; preds = %3
  %14 = add i64 %8, 1099511627776
  %15 = and i64 %14, 1152920405095219200
  %16 = and i64 %8, -1152920405095219201
  %17 = or disjoint i64 %15, %16
  store i64 %17, ptr %7, align 8
  br label %_ZN4cvc58internal9TrustNodeC2ERKS1_.exit

18:                                               ; preds = %3
  %19 = icmp eq i32 %11, 1048574
  br i1 %19, label %20, label %_ZN4cvc58internal9TrustNodeC2ERKS1_.exit, !prof !14

20:                                               ; preds = %18
  %21 = or i64 %8, 1152920405095219200
  store i64 %21, ptr %7, align 8
  tail call void @_ZN4cvc58internal4expr9NodeValue20markRefCountMaxedOutEv(ptr noundef nonnull align 8 dereferenceable(24) %7)
  br label %_ZN4cvc58internal9TrustNodeC2ERKS1_.exit

_ZN4cvc58internal9TrustNodeC2ERKS1_.exit:         ; preds = %13, %18, %20
  %22 = getelementptr inbounds nuw i8, ptr %0, i64 16
  %23 = getelementptr inbounds nuw i8, ptr %1, i64 16
  %24 = load ptr, ptr %23, align 8, !tbaa !15
  store ptr %24, ptr %22, align 8, !tbaa !15
  %25 = getelementptr inbounds nuw i8, ptr %0, i64 24
  %26 = load ptr, ptr %2, align 8, !tbaa !12
  store ptr %26, ptr %25, align 8, !tbaa !12
  %27 = load i64, ptr %26, align 8
  %28 = lshr i64 %27, 40
  %29 = trunc nuw nsw i64 %28 to i32
  %30 = and i32 %29, 1048575
  %31 = icmp samesign ult i32 %30, 1048574
  br i1 %31, label %32, label %37, !prof !13

32:                                               ; preds = %_ZN4cvc58internal9TrustNodeC2ERKS1_.exit
  %33 = add i64 %27, 1099511627776
  %34 = and i64 %33, 1152920405095219200
  %35 = and i64 %27, -1152920405095219201
  %36 = or disjoint i64 %34, %35
  store i64 %36, ptr %26, align 8
  br label %_ZN4cvc58internal12NodeTemplateILb1EEC2ERKS2_.exit

37:                                               ; preds = %_ZN4cvc58internal9TrustNodeC2ERKS1_.exit
  %38 = icmp eq i32 %30, 1048574
  br i1 %38, label %39, label %_ZN4cvc58internal12NodeTemplateILb1EEC2ERKS2_.exit, !prof !14

39:                                               ; preds = %37
  %40 = or i64 %27, 1152920405095219200
  store i64 %40, ptr %26, align 8
  invoke void @_ZN4cvc58internal4expr9NodeValue20markRefCountMaxedOutEv(ptr noundef nonnull align 8 dereferenceable(24) %26)
          to label %_ZN4cvc58internal12NodeTemplateILb1EEC2ERKS2_.exit unwind label %41

_ZN4cvc58internal12NodeTemplateILb1EEC2ERKS2_.exit: ; preds = %37, %32, %39
  ret void

41:                                               ; preds = %39
  %42 = landingpad { ptr, i32 }
          cleanup
  tail call void @_ZN4cvc58internal9TrustNodeD2Ev(ptr noundef nonnull align 8 dereferenceable(24) %0) #8
  resume { ptr, i32 } %42
}

declare i32 @__gxx_personality_v0(...)

; Function Attrs: mustprogress nounwind uwtable
define linkonce_odr hidden void @_ZN4cvc58internal9TrustNodeD2Ev(ptr noundef nonnull align 8 dereferenceable(24) %0) unnamed_addr #4 comdat align 2 personality ptr @__gxx_personality_v0 {
  %2 = getelementptr inbounds nuw i8, ptr %0, i64 8
  %3 = load ptr, ptr %2, align 8, !tbaa !12
  %4 = load i64, ptr %3, align 8
  %5 = and i64 %4, 1152920405095219200
  %.not.i.i = icmp eq i64 %5, 1152920405095219200
  br i1 %.not.i.i, label %_ZN4cvc58internal12NodeTemplateILb1EED2Ev.exit, label %6, !prof !14

6:                                                ; preds = %1
  %7 = add i64 %4, 1152920405095219200
  %8 = and i64 %7, 1152920405095219200
  %9 = and i64 %4, -1152920405095219201
  %10 = or disjoint i64 %8, %9
  store i64 %10, ptr %3, align 8
  %11 = icmp eq i64 %8, 0
  br i1 %11, label %12, label %_ZN4cvc58internal12NodeTemplateILb1EED2Ev.exit, !prof !14

12:                                               ; preds = %6
  invoke void @_ZN4cvc58internal4expr9NodeValue15markForDeletionEv(ptr noundef nonnull align 8 dereferenceable(24) %3)
          to label %_ZN4cvc58internal12NodeTemplateILb1EED2Ev.exit unwind label %13

13:                                               ; preds = %12
  %14 = landingpad { ptr, i32 }
          catch ptr null
  %15 = extractvalue { ptr, i32 } %14, 0
  tail call void @__clang_call_terminate(ptr %15) #9
  unreachable

_ZN4cvc58internal12NodeTemplateILb1EED2Ev.exit:   ; preds = %1, %6, %12
  ret void
}

; Function Attrs: mustprogress uwtable
define hidden void @_ZNK4cvc58internal6theory11SkolemLemma9getProvenEv(ptr dead_on_unwind noalias writable sret(%"class.cvc5::internal::NodeTemplate") align 8 %0, ptr noundef nonnull align 8 dereferenceable(32) %1) local_unnamed_addr #3 align 2 {
  tail call void @_ZNK4cvc58internal9TrustNode9getProvenEv(ptr dead_on_unwind writable sret(%"class.cvc5::internal::NodeTemplate") align 8 %0, ptr noundef nonnull align 8 dereferenceable(24) %1)
  ret void
}

declare void @_ZNK4cvc58internal9TrustNode9getProvenEv(ptr dead_on_unwind writable sret(%"class.cvc5::internal::NodeTemplate") align 8, ptr noundef nonnull align 8 dereferenceable(24)) local_unnamed_addr #0

; Function Attrs: noinline noreturn nounwind uwtable
define linkonce_odr hidden void @__clang_call_terminate(ptr noundef %0) local_unnamed_addr #5 comdat {
  %2 = tail call ptr @__cxa_begin_catch(ptr %0) #8
  tail call void @_ZSt9terminatev() #9
  unreachable
}

declare ptr @__cxa_begin_catch(ptr) local_unnamed_addr

; Function Attrs: cold nofree noreturn
declare void @_ZSt9terminatev() local_unnamed_addr #6

declare void @_ZN4cvc58internal4expr9NodeValue15markForDeletionEv(ptr noundef nonnull align 8 dereferenceable(24)) local_unnamed_addr #0

declare void @_ZN4cvc58internal4expr9NodeValue20markRefCountMaxedOutEv(ptr noundef nonnull align 8 dereferenceable(24)) local_unnamed_addr #0

; Function Attrs: uwtable
define internal void @_GLOBAL__sub_I_skolem_lemma.cpp() #7 section ".text.startup" {
  tail call void @_ZNSt8ios_base4InitC1Ev(ptr noundef nonnull align 1 dereferenceable(1) @_ZStL8__ioinit)
  %1 = tail call i32 @__cxa_atexit(ptr nonnull @_ZNSt8ios_base4InitD1Ev, ptr nonnull @_ZStL8__ioinit, ptr nonnull @__dso_handle) #8
  ret void
}


!llvm.module.flags = !{!0, !1, !2}

!0 = !{i32 1, !"wchar_size", i32 4}
!1 = !{i32 8, !"PIC Level", i32 2}
!2 = !{i32 7, !"uwtable", i32 2}
!3 = !{!4, !5, i64 0}
!4 = !{!"_ZTSN4cvc58internal9TrustNodeE", !5, i64 0, !8, i64 8, !11, i64 16}
!5 = !{!"_ZTSN4cvc58internal13TrustNodeKindE", !6, i64 0}
!6 = !{!"omnipotent char", !7, i64 0}
!7 = !{!"Simple C++ TBAA"}
!8 = !{!"_ZTSN4cvc58internal12NodeTemplateILb1EEE", !9, i64 0}
!9 = !{!"p1 _ZTSN4cvc58internal4expr9NodeValueE", !10, i64 0}
!10 = !{!"any pointer", !6, i64 0}
!11 = !{!"p1 _ZTSN4cvc58internal14ProofGeneratorE", !10, i64 0}
!12 = !{!8, !9, i64 0}
!13 = !{!"branch_weights", !"expected", i32 2000, i32 1}
!14 = !{!"branch_weights", !"expected", i32 1, i32 2000}
!15 = !{!4, !11, i64 16}
